; Function Attrs: nounwind uwtable
define internal fastcc range(i32 -1, -2147483648) i32 @H5VL__file_specific(ptr noundef %0, ptr noundef readonly captures(none) %1, ptr noundef %2, i64 noundef %3, ptr noundef %4) unnamed_addr #0 {
  %6 = alloca %struct.H5_user_cb_state_t, align 8
  %7 = load i8, ptr @H5VL_init_g, align 1, !tbaa !33, !range !35, !noundef !36
  %8 = trunc nuw i8 %7 to i1
  %9 = load i8, ptr @H5_libterm_g, align 1, !range !35
  %10 = trunc nuw i8 %9 to i1
  %11 = xor i1 %10, true
  %12 = select i1 %8, i1 true, i1 %11
  br i1 %12, label %13, label %38, !prof !37

13:                                               ; preds = %5
  %14 = getelementptr inbounds nuw i8, ptr %1, i64 336
  %15 = load ptr, ptr %14, align 8, !tbaa !100
  %16 = icmp eq ptr %15, null
  br i1 %16, label %17, label %21

17:                                               ; preds = %13
  %18 = load i64, ptr @H5E_VOL_g, align 8, !tbaa !3
  %19 = load i64, ptr @H5E_UNSUPPORTED_g, align 8, !tbaa !3
  %20 = tail call i32 (ptr, ptr, i32, i64, i64, ptr, ...) @H5E_printf_stack(ptr noundef nonnull @.str, ptr noundef nonnull @__func__.H5VL__file_specific, i32 noundef 4035, i64 noundef %18, i64 noundef %19, ptr noundef nonnull @.str.205) #7
  br label %38

21:                                               ; preds = %13
  call void @llvm.lifetime.start.p0(i64 24, ptr nonnull %6) #7
  %22 = call i32 @H5_user_cb_prepare(ptr noundef nonnull %6) #7
  %23 = icmp slt i32 %22, 0
  br i1 %23, label %.thread, label %24

24:                                               ; preds = %21
  %25 = load ptr, ptr %14, align 8, !tbaa !100
  %26 = call i32 %25(ptr noundef %0, ptr noundef %2, i64 noundef %3, ptr noundef %4) #7
  %27 = call i32 @H5_user_cb_restore(ptr noundef nonnull %6) #7
  %28 = icmp slt i32 %27, 0
  br i1 %28, label %.thread, label %32

.thread:                                          ; preds = %24, %21
  %H5E_CANTSET_g.sink = phi ptr [ @H5E_CANTSET_g, %21 ], [ @H5E_CANTRESTORE_g, %24 ]
  %.sink = phi i32 [ 4038, %21 ], [ 4043, %24 ]
  %29 = load i64, ptr @H5E_LIB_g, align 8, !tbaa !3
  %30 = load i64, ptr %H5E_CANTSET_g.sink, align 8, !tbaa !3
  %31 = call i32 (ptr, ptr, i32, i64, i64, ptr, ...) @H5E_printf_stack(ptr noundef nonnull @.str, ptr noundef nonnull @__func__.H5VL__file_specific, i32 noundef %.sink, i64 noundef %29, i64 noundef %30, ptr noundef nonnull @.str.2) #7
  call void @llvm.lifetime.end.p0(i64 24, ptr nonnull %6) #7
  br label %38

32:                                               ; preds = %24
  call void @llvm.lifetime.end.p0(i64 24, ptr nonnull %6) #7
  %33 = icmp slt i32 %26, 0
  br i1 %33, label %34, label %38

34:                                               ; preds = %32
  %35 = load i64, ptr @H5E_VOL_g, align 8, !tbaa !3
  %36 = load i64, ptr @H5E_CANTOPERATE_g, align 8, !tbaa !3
  %37 = call i32 (ptr, ptr, i32, i64, i64, ptr, ...) @H5E_printf_stack(ptr noundef nonnull @.str, ptr noundef nonnull @__func__.H5VL__file_specific, i32 noundef 4045, i64 noundef %35, i64 noundef %36, ptr noundef nonnull @.str.94) #7
  br label %38

38:                                               ; preds = %.thread, %32, %5, %34, %17
  %.014 = phi i32 [ -1, %17 ], [ %26, %32 ], [ -1, %34 ], [ 0, %5 ], [ -1, %.thread ]
  ret i32 %.014
}